; Function Attrs: mustprogress nounwind uwtable
define internal void @_ZN12_GLOBAL__N_121X86DAGToDAGISelLegacyD0Ev(ptr noundef nonnull align 8 dereferenceable(64) %0) unnamed_addr #0 align 2 {
  store ptr getelementptr inbounds inrange(-16, 176) (i8, ptr @_ZTVN4llvm22SelectionDAGISelLegacyE, i64 16), ptr %0, align 8
  %2 = getelementptr inbounds nuw i8, ptr %0, i64 56
  %3 = load ptr, ptr %2, align 8
  %.not.i.i.i = icmp eq ptr %3, null
  br i1 %.not.i.i.i, label %_ZN12_GLOBAL__N_121X86DAGToDAGISelLegacyD2Ev.exit, label %_ZNKSt14default_deleteIN4llvm16SelectionDAGISelEEclEPS1_.exit.i.i.i

_ZNKSt14default_deleteIN4llvm16SelectionDAGISelEEclEPS1_.exit.i.i.i: ; preds = %1
  %4 = load ptr, ptr %3, align 8
  %5 = getelementptr inbounds i8, ptr %4, i64 8
  %6 = load ptr, ptr %5, align 8
  tail call void %6(ptr noundef nonnull align 8 dereferenceable(272) %3) #23
  br label %_ZN12_GLOBAL__N_121X86DAGToDAGISelLegacyD2Ev.exit

_ZN12_GLOBAL__N_121X86DAGToDAGISelLegacyD2Ev.exit: ; preds = %1, %_ZNKSt14default_deleteIN4llvm16SelectionDAGISelEEclEPS1_.exit.i.i.i
  store ptr null, ptr %2, align 8
  tail call void @_ZN4llvm4PassD2Ev(ptr noundef nonnull align 8 dereferenceable(28) %0) #23
  tail call void @_ZdlPvm(ptr noundef nonnull %0, i64 noundef 64) #26
  ret void
}